; Function Attrs: mustprogress uwtable
define void @udat_applyPatternRelative_75(ptr noundef %format, ptr noundef %datePattern, i32 noundef %datePatternLength, ptr noundef %timePattern, i32 noundef %timePatternLength, ptr noundef %status) local_unnamed_addr #1 personality ptr @__gxx_personality_v0 {
entry:
  %datePat = alloca %"class.icu_75::UnicodeString", align 8
  %agg.tmp = alloca %"class.icu_75::ConstChar16Ptr", align 8
  %timePat = alloca %"class.icu_75::UnicodeString", align 8
  %agg.tmp3 = alloca %"class.icu_75::ConstChar16Ptr", align 8
  %0 = load i32, ptr %status, align 4
  %cmp.i.i = icmp sgt i32 %0, 0
  br i1 %cmp.i.i, label %return, label %land.lhs.true.i

land.lhs.true.i:                                  ; preds = %entry
  %1 = icmp eq ptr %format, null
  br i1 %1, label %if.then.i, label %dynamic_cast.notnull.i

dynamic_cast.notnull.i:                           ; preds = %land.lhs.true.i
  %2 = tail call ptr @__dynamic_cast(ptr nonnull %format, ptr nonnull @_ZTIN6icu_7510DateFormatE, ptr nonnull @_ZTIN6icu_7518RelativeDateFormatE, i64 0) #7
  %3 = icmp eq ptr %2, null
  br i1 %3, label %if.then.i, label %if.end

if.then.i:                                        ; preds = %dynamic_cast.notnull.i, %land.lhs.true.i
  store i32 1, ptr %status, align 4
  br label %return

if.end:                                           ; preds = %dynamic_cast.notnull.i
  %cmp = icmp eq i32 %datePatternLength, -1
  %conv = zext i1 %cmp to i8
  store ptr %datePattern, ptr %agg.tmp, align 8
  invoke void @_ZN6icu_7513UnicodeStringC1EaNS_14ConstChar16PtrEi(ptr noundef nonnull align 8 dereferenceable(64) %datePat, i8 noundef signext %conv, ptr noundef nonnull %agg.tmp, i32 noundef %datePatternLength)
          to label %invoke.cont unwind label %lpad

invoke.cont:                                      ; preds = %if.end
  %4 = load ptr, ptr %agg.tmp, align 8
  call void asm sideeffect "", "rm,~{memory},~{dirflag},~{fpsr},~{flags}"(ptr %4) #7, !srcloc !4
  %cmp1 = icmp eq i32 %timePatternLength, -1
  %conv2 = zext i1 %cmp1 to i8
  store ptr %timePattern, ptr %agg.tmp3, align 8
  invoke void @_ZN6icu_7513UnicodeStringC1EaNS_14ConstChar16PtrEi(ptr noundef nonnull align 8 dereferenceable(64) %timePat, i8 noundef signext %conv2, ptr noundef nonnull %agg.tmp3, i32 noundef %timePatternLength)
          to label %invoke.cont7 unwind label %lpad6

invoke.cont7:                                     ; preds = %invoke.cont
  %5 = load ptr, ptr %agg.tmp3, align 8
  call void asm sideeffect "", "rm,~{memory},~{dirflag},~{fpsr},~{flags}"(ptr %5) #7, !srcloc !4
  %vtable = load ptr, ptr %format, align 8
  %vfn = getelementptr inbounds i8, ptr %vtable, i64 256
  %6 = load ptr, ptr %vfn, align 8
  invoke void %6(ptr noundef nonnull align 8 dereferenceable(760) %format, ptr noundef nonnull align 8 dereferenceable(64) %datePat, ptr noundef nonnull align 8 dereferenceable(64) %timePat, ptr noundef nonnull align 4 dereferenceable(4) %status)
          to label %invoke.cont9 unwind label %lpad8

invoke.cont9:                                     ; preds = %invoke.cont7
  call void @_ZN6icu_7513UnicodeStringD1Ev(ptr noundef nonnull align 8 dereferenceable(64) %timePat) #7
  call void @_ZN6icu_7513UnicodeStringD1Ev(ptr noundef nonnull align 8 dereferenceable(64) %datePat) #7
  br label %return

return:                                           ; preds = %if.then.i, %entry, %invoke.cont9
  ret void

lpad:                                             ; preds = %if.end
  %7 = landingpad { ptr, i32 }
          cleanup
  %8 = load ptr, ptr %agg.tmp, align 8
  call void asm sideeffect "", "rm,~{memory},~{dirflag},~{fpsr},~{flags}"(ptr %8) #7, !srcloc !4
  br label %eh.resume

lpad6:                                            ; preds = %invoke.cont
  %9 = landingpad { ptr, i32 }
          cleanup
  %10 = load ptr, ptr %agg.tmp3, align 8
  call void asm sideeffect "", "rm,~{memory},~{dirflag},~{fpsr},~{flags}"(ptr %10) #7, !srcloc !4
  br label %ehcleanup

lpad8:                                            ; preds = %invoke.cont7
  %11 = landingpad { ptr, i32 }
          cleanup
  call void @_ZN6icu_7513UnicodeStringD1Ev(ptr noundef nonnull align 8 dereferenceable(64) %timePat) #7
  br label %ehcleanup

ehcleanup:                                        ; preds = %lpad8, %lpad6
  %.pn = phi { ptr, i32 } [ %11, %lpad8 ], [ %9, %lpad6 ]
  call void @_ZN6icu_7513UnicodeStringD1Ev(ptr noundef nonnull align 8 dereferenceable(64) %datePat) #7
  br label %eh.resume

eh.resume:                                        ; preds = %ehcleanup, %lpad
  %.pn.pn = phi { ptr, i32 } [ %.pn, %ehcleanup ], [ %7, %lpad ]
  resume { ptr, i32 } %.pn.pn
}